target datalayout = "e-m:e-p270:32:32-p271:32:32-p272:64:64-i64:64-i128:128-f80:128-n8:16:32:64-S128"
target triple = "x86_64-pc-linux-gnu"

%struct.Node = type { i32 }
%struct.PlannedStmt = type { i32, i32, i64, i8, i8, i8, i8, i8, i8, i32, ptr, ptr, ptr, ptr, ptr, ptr, ptr, ptr, ptr, ptr, ptr, ptr, ptr, ptr, i32, i32 }

; Function Attrs: inlinehint nounwind willreturn memory(read) uwtable
define available_externally i32 @atoi(ptr noundef nonnull %0) #6 {
  %2 = alloca ptr, align 8
  store ptr %0, ptr %2, align 8
  %3 = load ptr, ptr %2, align 8
  %4 = call i64 @strtol(ptr noundef %3, ptr noundef null, i32 noundef 10) #9
  %5 = trunc i64 %4 to i32
  ret i32 %5
}

; Function Attrs: inlinehint nounwind uwtable
define internal ptr @newNode(i64 noundef %0, i32 noundef %1) #7 {
  %3 = alloca i64, align 8
  %4 = alloca i32, align 4
  %5 = alloca ptr, align 8
  store i64 %0, ptr %3, align 8
  store i32 %1, ptr %4, align 4
  call void @llvm.lifetime.start.p0(i64 8, ptr %5) #9
  %6 = load i64, ptr %3, align 8
  %7 = call ptr @palloc0(i64 noundef %6)
  store ptr %7, ptr %5, align 8
  %8 = load i32, ptr %4, align 4
  %9 = load ptr, ptr %5, align 8
  %10 = getelementptr inbounds nuw %struct.Node, ptr %9, i32 0, i32 0
  store i32 %8, ptr %10, align 4
  %11 = load ptr, ptr %5, align 8
  call void @llvm.lifetime.end.p0(i64 8, ptr %5) #9
  ret ptr %11
}

; Function Attrs: nounwind uwtable
define internal ptr @_readPlannedStmt() #0 {
  %1 = alloca ptr, align 8
  %2 = alloca ptr, align 8
  %3 = alloca i32, align 4
  call void @llvm.lifetime.start.p0(i64 8, ptr %1) #9
  %4 = call ptr @newNode(i64 noundef 152, i32 noundef 329)
  store ptr %4, ptr %1, align 8
  call void @llvm.lifetime.start.p0(i64 8, ptr %2) #9
  call void @llvm.lifetime.start.p0(i64 4, ptr %3) #9
  %5 = call ptr @pg_strtok(ptr noundef %3)
  store ptr %5, ptr %2, align 8
  %6 = call ptr @pg_strtok(ptr noundef %3)
  store ptr %6, ptr %2, align 8
  %7 = load ptr, ptr %2, align 8
  %8 = call i32 @atoi(ptr noundef %7) #11
  %9 = load ptr, ptr %1, align 8
  %10 = getelementptr inbounds nuw %struct.PlannedStmt, ptr %9, i32 0, i32 1
  store i32 %8, ptr %10, align 4
  %11 = call ptr @pg_strtok(ptr noundef %3)
  store ptr %11, ptr %2, align 8
  %12 = call ptr @pg_strtok(ptr noundef %3)
  store ptr %12, ptr %2, align 8
  %13 = load ptr, ptr %2, align 8
  %14 = call i64 @strtoul(ptr noundef %13, ptr noundef null, i32 noundef 10) #9
  %15 = load ptr, ptr %1, align 8
  %16 = getelementptr inbounds nuw %struct.PlannedStmt, ptr %15, i32 0, i32 2
  store i64 %14, ptr %16, align 8
  %17 = call ptr @pg_strtok(ptr noundef %3)
  store ptr %17, ptr %2, align 8
  %18 = call ptr @pg_strtok(ptr noundef %3)
  store ptr %18, ptr %2, align 8
  %19 = load ptr, ptr %2, align 8
  %20 = load i8, ptr %19, align 1
  %21 = sext i8 %20 to i32
  %22 = icmp eq i32 %21, 116
  %23 = select i1 %22, i32 1, i32 0
  %24 = icmp ne i32 %23, 0
  %25 = load ptr, ptr %1, align 8
  %26 = getelementptr inbounds nuw %struct.PlannedStmt, ptr %25, i32 0, i32 3
  %27 = zext i1 %24 to i8
  store i8 %27, ptr %26, align 8
  %28 = call ptr @pg_strtok(ptr noundef %3)
  store ptr %28, ptr %2, align 8
  %29 = call ptr @pg_strtok(ptr noundef %3)
  store ptr %29, ptr %2, align 8
  %30 = load ptr, ptr %2, align 8
  %31 = load i8, ptr %30, align 1
  %32 = sext i8 %31 to i32
  %33 = icmp eq i32 %32, 116
  %34 = select i1 %33, i32 1, i32 0
  %35 = icmp ne i32 %34, 0
  %36 = load ptr, ptr %1, align 8
  %37 = getelementptr inbounds nuw %struct.PlannedStmt, ptr %36, i32 0, i32 4
  %38 = zext i1 %35 to i8
  store i8 %38, ptr %37, align 1
  %39 = call ptr @pg_strtok(ptr noundef %3)
  store ptr %39, ptr %2, align 8
  %40 = call ptr @pg_strtok(ptr noundef %3)
  store ptr %40, ptr %2, align 8
  %41 = load ptr, ptr %2, align 8
  %42 = load i8, ptr %41, align 1
  %43 = sext i8 %42 to i32
  %44 = icmp eq i32 %43, 116
  %45 = select i1 %44, i32 1, i32 0
  %46 = icmp ne i32 %45, 0
  %47 = load ptr, ptr %1, align 8
  %48 = getelementptr inbounds nuw %struct.PlannedStmt, ptr %47, i32 0, i32 5
  %49 = zext i1 %46 to i8
  store i8 %49, ptr %48, align 2
  %50 = call ptr @pg_strtok(ptr noundef %3)
  store ptr %50, ptr %2, align 8
  %51 = call ptr @pg_strtok(ptr noundef %3)
  store ptr %51, ptr %2, align 8
  %52 = load ptr, ptr %2, align 8
  %53 = load i8, ptr %52, align 1
  %54 = sext i8 %53 to i32
  %55 = icmp eq i32 %54, 116
  %56 = select i1 %55, i32 1, i32 0
  %57 = icmp ne i32 %56, 0
  %58 = load ptr, ptr %1, align 8
  %59 = getelementptr inbounds nuw %struct.PlannedStmt, ptr %58, i32 0, i32 6
  %60 = zext i1 %57 to i8
  store i8 %60, ptr %59, align 1
  %61 = call ptr @pg_strtok(ptr noundef %3)
  store ptr %61, ptr %2, align 8
  %62 = call ptr @pg_strtok(ptr noundef %3)
  store ptr %62, ptr %2, align 8
  %63 = load ptr, ptr %2, align 8
  %64 = load i8, ptr %63, align 1
  %65 = sext i8 %64 to i32
  %66 = icmp eq i32 %65, 116
  %67 = select i1 %66, i32 1, i32 0
  %68 = icmp ne i32 %67, 0
  %69 = load ptr, ptr %1, align 8
  %70 = getelementptr inbounds nuw %struct.PlannedStmt, ptr %69, i32 0, i32 7
  %71 = zext i1 %68 to i8
  store i8 %71, ptr %70, align 4
  %72 = call ptr @pg_strtok(ptr noundef %3)
  store ptr %72, ptr %2, align 8
  %73 = call ptr @pg_strtok(ptr noundef %3)
  store ptr %73, ptr %2, align 8
  %74 = load ptr, ptr %2, align 8
  %75 = load i8, ptr %74, align 1
  %76 = sext i8 %75 to i32
  %77 = icmp eq i32 %76, 116
  %78 = select i1 %77, i32 1, i32 0
  %79 = icmp ne i32 %78, 0
  %80 = load ptr, ptr %1, align 8
  %81 = getelementptr inbounds nuw %struct.PlannedStmt, ptr %80, i32 0, i32 8
  %82 = zext i1 %79 to i8
  store i8 %82, ptr %81, align 1
  %83 = call ptr @pg_strtok(ptr noundef %3)
  store ptr %83, ptr %2, align 8
  %84 = call ptr @pg_strtok(ptr noundef %3)
  store ptr %84, ptr %2, align 8
  %85 = load ptr, ptr %2, align 8
  %86 = call i32 @atoi(ptr noundef %85) #11
  %87 = load ptr, ptr %1, align 8
  %88 = getelementptr inbounds nuw %struct.PlannedStmt, ptr %87, i32 0, i32 9
  store i32 %86, ptr %88, align 8
  %89 = call ptr @pg_strtok(ptr noundef %3)
  store ptr %89, ptr %2, align 8
  %90 = call ptr @nodeRead(ptr noundef null, i32 noundef 0)
  %91 = load ptr, ptr %1, align 8
  %92 = getelementptr inbounds nuw %struct.PlannedStmt, ptr %91, i32 0, i32 10
  store ptr %90, ptr %92, align 8
  %93 = call ptr @pg_strtok(ptr noundef %3)
  store ptr %93, ptr %2, align 8
  %94 = call ptr @nodeRead(ptr noundef null, i32 noundef 0)
  %95 = load ptr, ptr %1, align 8
  %96 = getelementptr inbounds nuw %struct.PlannedStmt, ptr %95, i32 0, i32 11
  store ptr %94, ptr %96, align 8
  %97 = call ptr @pg_strtok(ptr noundef %3)
  store ptr %97, ptr %2, align 8
  %98 = call ptr @nodeRead(ptr noundef null, i32 noundef 0)
  %99 = load ptr, ptr %1, align 8
  %100 = getelementptr inbounds nuw %struct.PlannedStmt, ptr %99, i32 0, i32 12
  store ptr %98, ptr %100, align 8
  %101 = call ptr @pg_strtok(ptr noundef %3)
  store ptr %101, ptr %2, align 8
  %102 = call ptr @_readBitmapset()
  %103 = load ptr, ptr %1, align 8
  %104 = getelementptr inbounds nuw %struct.PlannedStmt, ptr %103, i32 0, i32 13
  store ptr %102, ptr %104, align 8
  %105 = call ptr @pg_strtok(ptr noundef %3)
  store ptr %105, ptr %2, align 8
  %106 = call ptr @nodeRead(ptr noundef null, i32 noundef 0)
  %107 = load ptr, ptr %1, align 8
  %108 = getelementptr inbounds nuw %struct.PlannedStmt, ptr %107, i32 0, i32 14
  store ptr %106, ptr %108, align 8
  %109 = call ptr @pg_strtok(ptr noundef %3)
  store ptr %109, ptr %2, align 8
  %110 = call ptr @nodeRead(ptr noundef null, i32 noundef 0)
  %111 = load ptr, ptr %1, align 8
  %112 = getelementptr inbounds nuw %struct.PlannedStmt, ptr %111, i32 0, i32 15
  store ptr %110, ptr %112, align 8
  %113 = call ptr @pg_strtok(ptr noundef %3)
  store ptr %113, ptr %2, align 8
  %114 = call ptr @nodeRead(ptr noundef null, i32 noundef 0)
  %115 = load ptr, ptr %1, align 8
  %116 = getelementptr inbounds nuw %struct.PlannedStmt, ptr %115, i32 0, i32 16
  store ptr %114, ptr %116, align 8
  %117 = call ptr @pg_strtok(ptr noundef %3)
  store ptr %117, ptr %2, align 8
  %118 = call ptr @nodeRead(ptr noundef null, i32 noundef 0)
  %119 = load ptr, ptr %1, align 8
  %120 = getelementptr inbounds nuw %struct.PlannedStmt, ptr %119, i32 0, i32 17
  store ptr %118, ptr %120, align 8
  %121 = call ptr @pg_strtok(ptr noundef %3)
  store ptr %121, ptr %2, align 8
  %122 = call ptr @_readBitmapset()
  %123 = load ptr, ptr %1, align 8
  %124 = getelementptr inbounds nuw %struct.PlannedStmt, ptr %123, i32 0, i32 18
  store ptr %122, ptr %124, align 8
  %125 = call ptr @pg_strtok(ptr noundef %3)
  store ptr %125, ptr %2, align 8
  %126 = call ptr @nodeRead(ptr noundef null, i32 noundef 0)
  %127 = load ptr, ptr %1, align 8
  %128 = getelementptr inbounds nuw %struct.PlannedStmt, ptr %127, i32 0, i32 19
  store ptr %126, ptr %128, align 8
  %129 = call ptr @pg_strtok(ptr noundef %3)
  store ptr %129, ptr %2, align 8
  %130 = call ptr @nodeRead(ptr noundef null, i32 noundef 0)
  %131 = load ptr, ptr %1, align 8
  %132 = getelementptr inbounds nuw %struct.PlannedStmt, ptr %131, i32 0, i32 20
  store ptr %130, ptr %132, align 8
  %133 = call ptr @pg_strtok(ptr noundef %3)
  store ptr %133, ptr %2, align 8
  %134 = call ptr @nodeRead(ptr noundef null, i32 noundef 0)
  %135 = load ptr, ptr %1, align 8
  %136 = getelementptr inbounds nuw %struct.PlannedStmt, ptr %135, i32 0, i32 21
  store ptr %134, ptr %136, align 8
  %137 = call ptr @pg_strtok(ptr noundef %3)
  store ptr %137, ptr %2, align 8
  %138 = call ptr @nodeRead(ptr noundef null, i32 noundef 0)
  %139 = load ptr, ptr %1, align 8
  %140 = getelementptr inbounds nuw %struct.PlannedStmt, ptr %139, i32 0, i32 22
  store ptr %138, ptr %140, align 8
  %141 = call ptr @pg_strtok(ptr noundef %3)
  store ptr %141, ptr %2, align 8
  %142 = call ptr @nodeRead(ptr noundef null, i32 noundef 0)
  %143 = load ptr, ptr %1, align 8
  %144 = getelementptr inbounds nuw %struct.PlannedStmt, ptr %143, i32 0, i32 23
  store ptr %142, ptr %144, align 8
  %145 = call ptr @pg_strtok(ptr noundef %3)
  store ptr %145, ptr %2, align 8
  %146 = call ptr @pg_strtok(ptr noundef %3)
  store ptr %146, ptr %2, align 8
  %147 = load ptr, ptr %1, align 8
  %148 = getelementptr inbounds nuw %struct.PlannedStmt, ptr %147, i32 0, i32 24
  store i32 -1, ptr %148, align 8
  %149 = call ptr @pg_strtok(ptr noundef %3)
  store ptr %149, ptr %2, align 8
  %150 = call ptr @pg_strtok(ptr noundef %3)
  store ptr %150, ptr %2, align 8
  %151 = load ptr, ptr %1, align 8
  %152 = getelementptr inbounds nuw %struct.PlannedStmt, ptr %151, i32 0, i32 25
  store i32 -1, ptr %152, align 4
  %153 = load ptr, ptr %1, align 8
  call void @llvm.lifetime.end.p0(i64 4, ptr %3) #9
  call void @llvm.lifetime.end.p0(i64 8, ptr %2) #9
  call void @llvm.lifetime.end.p0(i64 8, ptr %1) #9
  ret ptr %153
}