; Function Attrs: nounwind uwtable
define internal fastcc noundef ptr @_readPlannedStmt() unnamed_addr #0 {
  %1 = alloca i32, align 4
  %2 = tail call noundef ptr @palloc0(i64 noundef 152) #10
  store i32 329, ptr %2, align 4
  call void @llvm.lifetime.start.p0(i64 4, ptr nonnull %1) #10
  %3 = call ptr @pg_strtok(ptr noundef nonnull %1) #10
  %4 = call ptr @pg_strtok(ptr noundef nonnull %1) #10
  %5 = call i64 @strtol(ptr noundef nonnull captures(none) %4, ptr noundef null, i32 noundef 10) #10
  %6 = trunc i64 %5 to i32
  %7 = getelementptr inbounds nuw i8, ptr %2, i64 4
  store i32 %6, ptr %7, align 4
  %8 = call ptr @pg_strtok(ptr noundef nonnull %1) #10
  %9 = call ptr @pg_strtok(ptr noundef nonnull %1) #10
  %10 = call i64 @strtoul(ptr noundef captures(none) %9, ptr noundef null, i32 noundef 10) #10
  %11 = getelementptr inbounds nuw i8, ptr %2, i64 8
  store i64 %10, ptr %11, align 8
  %12 = call ptr @pg_strtok(ptr noundef nonnull %1) #10
  %13 = call ptr @pg_strtok(ptr noundef nonnull %1) #10
  %14 = load i8, ptr %13, align 1
  %15 = icmp eq i8 %14, 116
  %16 = getelementptr inbounds nuw i8, ptr %2, i64 16
  %17 = zext i1 %15 to i8
  store i8 %17, ptr %16, align 8
  %18 = call ptr @pg_strtok(ptr noundef nonnull %1) #10
  %19 = call ptr @pg_strtok(ptr noundef nonnull %1) #10
  %20 = load i8, ptr %19, align 1
  %21 = icmp eq i8 %20, 116
  %22 = getelementptr inbounds nuw i8, ptr %2, i64 17
  %23 = zext i1 %21 to i8
  store i8 %23, ptr %22, align 1
  %24 = call ptr @pg_strtok(ptr noundef nonnull %1) #10
  %25 = call ptr @pg_strtok(ptr noundef nonnull %1) #10
  %26 = load i8, ptr %25, align 1
  %27 = icmp eq i8 %26, 116
  %28 = getelementptr inbounds nuw i8, ptr %2, i64 18
  %29 = zext i1 %27 to i8
  store i8 %29, ptr %28, align 2
  %30 = call ptr @pg_strtok(ptr noundef nonnull %1) #10
  %31 = call ptr @pg_strtok(ptr noundef nonnull %1) #10
  %32 = load i8, ptr %31, align 1
  %33 = icmp eq i8 %32, 116
  %34 = getelementptr inbounds nuw i8, ptr %2, i64 19
  %35 = zext i1 %33 to i8
  store i8 %35, ptr %34, align 1
  %36 = call ptr @pg_strtok(ptr noundef nonnull %1) #10
  %37 = call ptr @pg_strtok(ptr noundef nonnull %1) #10
  %38 = load i8, ptr %37, align 1
  %39 = icmp eq i8 %38, 116
  %40 = getelementptr inbounds nuw i8, ptr %2, i64 20
  %41 = zext i1 %39 to i8
  store i8 %41, ptr %40, align 4
  %42 = call ptr @pg_strtok(ptr noundef nonnull %1) #10
  %43 = call ptr @pg_strtok(ptr noundef nonnull %1) #10
  %44 = load i8, ptr %43, align 1
  %45 = icmp eq i8 %44, 116
  %46 = getelementptr inbounds nuw i8, ptr %2, i64 21
  %47 = zext i1 %45 to i8
  store i8 %47, ptr %46, align 1
  %48 = call ptr @pg_strtok(ptr noundef nonnull %1) #10
  %49 = call ptr @pg_strtok(ptr noundef nonnull %1) #10
  %50 = call i64 @strtol(ptr noundef nonnull captures(none) %49, ptr noundef null, i32 noundef 10) #10
  %51 = trunc i64 %50 to i32
  %52 = getelementptr inbounds nuw i8, ptr %2, i64 24
  store i32 %51, ptr %52, align 8
  %53 = call ptr @pg_strtok(ptr noundef nonnull %1) #10
  %54 = call ptr @nodeRead(ptr noundef null, i32 noundef 0) #10
  %55 = getelementptr inbounds nuw i8, ptr %2, i64 32
  store ptr %54, ptr %55, align 8
  %56 = call ptr @pg_strtok(ptr noundef nonnull %1) #10
  %57 = call ptr @nodeRead(ptr noundef null, i32 noundef 0) #10
  %58 = getelementptr inbounds nuw i8, ptr %2, i64 40
  store ptr %57, ptr %58, align 8
  %59 = call ptr @pg_strtok(ptr noundef nonnull %1) #10
  %60 = call ptr @nodeRead(ptr noundef null, i32 noundef 0) #10
  %61 = getelementptr inbounds nuw i8, ptr %2, i64 48
  store ptr %60, ptr %61, align 8
  %62 = call ptr @pg_strtok(ptr noundef nonnull %1) #10
  %63 = call fastcc ptr @_readBitmapset()
  %64 = getelementptr inbounds nuw i8, ptr %2, i64 56
  store ptr %63, ptr %64, align 8
  %65 = call ptr @pg_strtok(ptr noundef nonnull %1) #10
  %66 = call ptr @nodeRead(ptr noundef null, i32 noundef 0) #10
  %67 = getelementptr inbounds nuw i8, ptr %2, i64 64
  store ptr %66, ptr %67, align 8
  %68 = call ptr @pg_strtok(ptr noundef nonnull %1) #10
  %69 = call ptr @nodeRead(ptr noundef null, i32 noundef 0) #10
  %70 = getelementptr inbounds nuw i8, ptr %2, i64 72
  store ptr %69, ptr %70, align 8
  %71 = call ptr @pg_strtok(ptr noundef nonnull %1) #10
  %72 = call ptr @nodeRead(ptr noundef null, i32 noundef 0) #10
  %73 = getelementptr inbounds nuw i8, ptr %2, i64 80
  store ptr %72, ptr %73, align 8
  %74 = call ptr @pg_strtok(ptr noundef nonnull %1) #10
  %75 = call ptr @nodeRead(ptr noundef null, i32 noundef 0) #10
  %76 = getelementptr inbounds nuw i8, ptr %2, i64 88
  store ptr %75, ptr %76, align 8
  %77 = call ptr @pg_strtok(ptr noundef nonnull %1) #10
  %78 = call fastcc ptr @_readBitmapset()
  %79 = getelementptr inbounds nuw i8, ptr %2, i64 96
  store ptr %78, ptr %79, align 8
  %80 = call ptr @pg_strtok(ptr noundef nonnull %1) #10
  %81 = call ptr @nodeRead(ptr noundef null, i32 noundef 0) #10
  %82 = getelementptr inbounds nuw i8, ptr %2, i64 104
  store ptr %81, ptr %82, align 8
  %83 = call ptr @pg_strtok(ptr noundef nonnull %1) #10
  %84 = call ptr @nodeRead(ptr noundef null, i32 noundef 0) #10
  %85 = getelementptr inbounds nuw i8, ptr %2, i64 112
  store ptr %84, ptr %85, align 8
  %86 = call ptr @pg_strtok(ptr noundef nonnull %1) #10
  %87 = call ptr @nodeRead(ptr noundef null, i32 noundef 0) #10
  %88 = getelementptr inbounds nuw i8, ptr %2, i64 120
  store ptr %87, ptr %88, align 8
  %89 = call ptr @pg_strtok(ptr noundef nonnull %1) #10
  %90 = call ptr @nodeRead(ptr noundef null, i32 noundef 0) #10
  %91 = getelementptr inbounds nuw i8, ptr %2, i64 128
  store ptr %90, ptr %91, align 8
  %92 = call ptr @pg_strtok(ptr noundef nonnull %1) #10
  %93 = call ptr @nodeRead(ptr noundef null, i32 noundef 0) #10
  %94 = getelementptr inbounds nuw i8, ptr %2, i64 136
  store ptr %93, ptr %94, align 8
  %95 = call ptr @pg_strtok(ptr noundef nonnull %1) #10
  %96 = call ptr @pg_strtok(ptr noundef nonnull %1) #10
  %97 = getelementptr inbounds nuw i8, ptr %2, i64 144
  store i32 -1, ptr %97, align 8
  %98 = call ptr @pg_strtok(ptr noundef nonnull %1) #10
  %99 = call ptr @pg_strtok(ptr noundef nonnull %1) #10
  %100 = getelementptr inbounds nuw i8, ptr %2, i64 148
  store i32 -1, ptr %100, align 4
  call void @llvm.lifetime.end.p0(i64 4, ptr nonnull %1) #10
  ret ptr %2
}